crandom
Random
p0
(tRp1
(I3
(L2147483648L
L3685671228L
L4170768480L
L732551363L
L2221426805L
L849715535L
L2610027910L
L2225656591L
L4029593601L
L1800000040L
L2578931833L
L472836243L
L930651708L
L3949914760L
L3641811125L
L2071759024L
L262528962L
L1381618405L
L380096104L
L3439405679L
L3432430234L
L1231156308L
L3669893195L
L2900654179L
L570481433L
L518923070L
L2269894481L
L1523563988L
L4072745166L
L3490543152L
L1013585004L
L874587110L
L615171276L
L1303998869L
L3045660999L
L1926470195L
L439332226L
L1001851797L
L1205562308L
L452533582L
L2550678310L
L1986962510L
L1662107774L
L2951889370L
L1679339779L
L3412249185L
L1277144497L
L618723910L
L698702016L
L1960167020L
L3705928381L
L27949931L
L3093580681L
L1240307691L
L3133337771L
L3086392600L
L2411985869L
L671995808L
L1315239870L
L2722796224L
L2326447748L
L3346726667L
L2923432545L
L1679744179L
L2948191064L
L2002816072L
L1922993166L
L1084920832L
L3876487733L
L1005909516L
L1110850225L
L1848272075L
L1280059141L
L1890889064L
L1562232110L
L3697204986L
L4066867327L
L3864838928L
L1357043357L
L307631211L
L870067199L
L469438856L
L1781748678L
L2948486876L
L1982647875L
L2802153026L
L19587213L
L2553193533L
L343514830L
L3836937006L
L966962830L
L240154526L
L4182659702L
L1522369694L
L1276548051L
L3306094126L
L1843377792L
L2830068030L
L2212090814L
L4194864324L
L537627068L
L904830386L
L3970877353L
L1162150330L
L3754455713L
L2383484744L
L3894125874L
L166761639L
L1884976350L
L3494769581L
L344484481L
L1483983931L
L244780696L
L156449621L
L442901938L
L485111400L
L3097222490L
L1148878455L
L1262044130L
L622001545L
L2961726657L
L765084296L
L760668150L
L94852960L
L2040947976L
L3606703691L
L3668081153L
L959251514L
L2946406702L
L2463897736L
L4261873545L
L3014933119L
L10771548L
L1095697914L
L3803645446L
L3275958090L
L1409787585L
L2225101956L
L2568057342L
L1063914618L
L4160591026L
L1139482412L
L838935207L
L2310058515L
L3484959793L
L3039617840L
L2208780245L
L195415591L
L2368981891L
L2202235210L
L2756534349L
L1402435627L
L1193681889L
L3479468658L
L908954635L
L1498110255L
L3861916934L
L3876313853L
L2795129805L
L3907057322L
L3205028658L
L1033153756L
L1025093856L
L1507264365L
L3373281158L
L3063385760L
L2921990584L
L2675741477L
L3446515597L
L1377149493L
L1813417758L
L1039097806L
L3300375384L
L3418655999L
L1126896166L
L729803756L
L3170726242L
L1362369239L
L1043002495L
L549399011L
L4020194148L
L4033395737L
L3697721161L
L3104188684L
L1216592548L
L1764002163L
L1793735735L
L746247521L
L1876105516L
L603847268L
L4188779637L
L1789166553L
L331150713L
L3833654472L
L3580788498L
L3782584565L
L3318129240L
L2530164503L
L2428804474L
L2040704747L
L2952632552L
L348974665L
L771633136L
L5985570L
L1355627497L
L1264588495L
L251106600L
L2340443325L
L4087169830L
L1575924136L
L3318940841L
L2856202590L
L2836802507L
L3751911548L
L3949482557L
L226240015L
L3451625908L
L3439867170L
L2072680836L
L34306843L
L827736376L
L316626307L
L3555301021L
L2553887795L
L486559037L
L2888125189L
L2263925576L
L2023073401L
L1865385221L
L2681308178L
L2339561758L
L358132032L
L3454347689L
L2629311902L
L1290801407L
L4110854227L
L1677879417L
L3368976496L
L167000598L
L1467191155L
L2368686354L
L1470828319L
L4096608601L
L3189365381L
L3562707712L
L1479513121L
L4069038993L
L343984465L
L702514715L
L2250430641L
L3582326776L
L1183521998L
L1169636166L
L103360072L
L2122862074L
L1676516160L
L722850369L
L4124669981L
L2674843465L
L2112383924L
L3545694456L
L2228740940L
L1321902019L
L4002832908L
L3020235464L
L1200939067L
L3454278304L
L2085677853L
L1989613743L
L1019847847L
L2016627362L
L4271432396L
L1374152622L
L1291450175L
L1620950688L
L2985766227L
L1987447088L
L24439810L
L2447602181L
L3420143039L
L2535626883L
L3147938581L
L2051269528L
L465626366L
L798909865L
L1947589424L
L782401747L
L225233180L
L2809133147L
L2759228607L
L540016918L
L3618158684L
L731595598L
L3894932576L
L69316553L
L4265545763L
L45588718L
L3078731821L
L1190416113L
L2982971141L
L2092882234L
L2639826073L
L2809294165L
L368594240L
L793372831L
L1624091904L
L3374420102L
L3976679755L
L3424725436L
L3448129739L
L2362721382L
L2051167429L
L3708713837L
L1668187160L
L971460897L
L2065847549L
L484873911L
L2686036378L
L1802982390L
L1105546187L
L27165549L
L3227270252L
L1267953018L
L303530049L
L1176883230L
L2368917488L
L1420555893L
L228947582L
L491914324L
L3381961752L
L3671897520L
L3120328372L
L1994655030L
L620723846L
L2716042298L
L877908920L
L63885264L
L3537044984L
L241566983L
L2710669302L
L3657262598L
L3770491616L
L3899556559L
L652193012L
L927523964L
L306383293L
L1928470232L
L1413542854L
L4081811169L
L4109464117L
L2291007957L
L1752208422L
L2905762206L
L95247326L
L1262344651L
L389350656L
L3822005151L
L237520513L
L1738163489L
L389165100L
L1040195920L
L3678674337L
L2836439913L
L2092238963L
L3120763067L
L3232871919L
L2433541459L
L3340504899L
L3217050382L
L2887376712L
L3099385871L
L4042990664L
L1219508201L
L548299186L
L903450487L
L3433488930L
L846024201L
L2164018493L
L3015113716L
L3242332308L
L1554869437L
L3579796790L
L1729792063L
L2055677520L
L2603505644L
L2020579247L
L888719572L
L2497944423L
L2691675261L
L1919017431L
L3558453847L
L1349442429L
L2383518289L
L3601172636L
L2286969890L
L183728714L
L1111886689L
L2684045959L
L1919349542L
L1521001457L
L2912545266L
L3896812516L
L3265016009L
L1329238752L
L1805242372L
L767802484L
L3476915014L
L2330786415L
L1889076531L
L477280096L
L2574860602L
L1608368202L
L3696337399L
L978918252L
L3317832183L
L653090113L
L4118348861L
L1164527646L
L3237944521L
L996433836L
L441281845L
L3123699364L
L2848879040L
L584656693L
L129082352L
L1761287990L
L4135981820L
L297013821L
L2822476798L
L2845608205L
L3033379540L
L1696029509L
L209974158L
L1151274354L
L4212135397L
L2836234497L
L4082744423L
L364573745L
L1601285556L
L3267762935L
L38301268L
L440005335L
L3243469512L
L1810511100L
L3061915040L
L3475438436L
L4245353684L
L546796294L
L1125613707L
L4251721176L
L3089376453L
L3089083390L
L2652110161L
L2493601664L
L3265698658L
L669680304L
L1325526617L
L3774962551L
L1164148467L
L3667507144L
L2159182080L
L4248147983L
L3926715812L
L230151629L
L1325943625L
L3044447458L
L1308566991L
L2547056621L
L1685917785L
L2328029594L
L2887804565L
L144286928L
L4072278140L
L2014467349L
L135930874L
L3402766645L
L662168461L
L233734160L
L1408146500L
L373751436L
L1766132684L
L2835192363L
L1855194326L
L1757265417L
L2057705536L
L2823345289L
L825524125L
L3906568976L
L2294507837L
L2948688026L
L2065115111L
L2021504435L
L3605950938L
L3375094157L
L1285539305L
L1540497145L
L1270471285L
L3505384337L
L537183543L
L2564403208L
L2276384300L
L3540174629L
L1887136056L
L129840357L
L845183789L
L1561061057L
L2280997422L
L1664692476L
L3376751022L
L1630644429L
L3885732867L
L2156368832L
L1430301973L
L3421023980L
L3464720028L
L8779110L
L82992909L
L2271414900L
L1704120931L
L1451624920L
L3738367740L
L1414050244L
L4197340673L
L431989506L
L1985419669L
L3333310961L
L2544647715L
L1391178104L
L2774507312L
L761282233L
L4261482135L
L106327020L
L3016803621L
L873461453L
L2099456458L
L453432880L
L1743223688L
L2466978372L
L4116887352L
L2356818715L
L2582178866L
L112812309L
L1318660259L
L4094192553L
L839306917L
L2122022515L
L3385050281L
L1580664537L
L4195898806L
L2075917555L
L456377694L
L3621114085L
L3048132115L
L3536286890L
L4148373582L
L1652482342L
L313841638L
L2389256951L
L1519379444L
L4150254825L
L1485609533L
L2139389654L
L1531018666L
L3759718894L
L2392652355L
L1036993889L
L1705576858L
L2024768398L
L138081848L
L3337878306L
L984227411L
L2587577254L
L2663552714L
L3519846550L
L1729983647L
L3779114085L
L1719632208L
L1668211181L
L3954777387L
L3312258837L
L4175489714L
L1904123546L
L4186656592L
L1710083893L
L3790275359L
L3485921304L
L1391189733L
L3153139516L
L98318465L
L36748494L
L2130024935L
L2706479330L
L2862470717L
L715626078L
L2684836816L
L2876147650L
L3936463510L
L3770890210L
L2020098134L
L4047916454L
L1430237740L
L272339890L
L3871157964L
L100570530L
L2753287383L
L2448731541L
L2474824488L
L1873164197L
L3194104786L
L36749296L
L2657613113L
L1525889021L
L821015942L
L3279977914L
L363940891L
L2367623724L
L2077657403L
L1911572042L
L57912212L
L2717033160L
L3128460383L
L1697257290L
L1054946797L
L2782023908L
L624L
tp2
Ntp3
b.